target datalayout = "e-m:e-p270:32:32-p271:32:32-p272:64:64-i64:64-i128:128-f80:128-n8:16:32:64-S128"
target triple = "x86_64-pc-linux-gnu"

%"class.zmq::thread_t" = type { ptr, ptr, [16 x i8], i8, i64, i32, i32, %"class.std::set" }
%"class.std::set" = type { %"class.std::_Rb_tree" }
%"class.std::_Rb_tree" = type { %"struct.std::_Rb_tree<int, int, std::_Identity<int>, std::less<int>>::_Rb_tree_impl" }
%"struct.std::_Rb_tree<int, int, std::_Identity<int>, std::less<int>>::_Rb_tree_impl" = type { [8 x i8], %"struct.std::_Rb_tree_header" }
%"struct.std::_Rb_tree_header" = type { %"struct.std::_Rb_tree_node_base", i64 }
%"struct.std::_Rb_tree_node_base" = type { i32, ptr, ptr, ptr }

@stderr = external global ptr, align 8
@.str = private unnamed_addr constant [12 x i8] c"%s (%s:%d)\0A\00", align 1
@.str.1 = private unnamed_addr constant [106 x i8] c"generated/home/dtcxzyw/WorkSpace/Projects/compilers/llvm-opt-benchmark/bench/libzmq/libzmq/src/thread.cpp\00", align 1

; Function Attrs: mustprogress uwtable
define void @_ZN3zmq8thread_t5startEPFvPvES1_PKc(ptr noundef nonnull align 8 dereferenceable(104) %0, ptr noundef %1, ptr noundef %2, ptr noundef %3) #1 align 2 {
  %5 = alloca ptr, align 8
  %6 = alloca ptr, align 8
  %7 = alloca ptr, align 8
  %8 = alloca ptr, align 8
  %9 = alloca i32, align 4
  %10 = alloca ptr, align 8
  store ptr %0, ptr %5, align 8, !tbaa !3
  store ptr %1, ptr %6, align 8, !tbaa !24
  store ptr %2, ptr %7, align 8, !tbaa !24
  store ptr %3, ptr %8, align 8, !tbaa !25
  %11 = load ptr, ptr %5, align 8
  %12 = load ptr, ptr %6, align 8, !tbaa !24
  %13 = getelementptr inbounds nuw %"class.zmq::thread_t", ptr %11, i32 0, i32 0
  store ptr %12, ptr %13, align 8, !tbaa !27
  %14 = load ptr, ptr %7, align 8, !tbaa !24
  %15 = getelementptr inbounds nuw %"class.zmq::thread_t", ptr %11, i32 0, i32 1
  store ptr %14, ptr %15, align 8, !tbaa !28
  %16 = load ptr, ptr %8, align 8, !tbaa !25
  %17 = icmp ne ptr %16, null
  br i1 %17, label %18, label %23

18:                                               ; preds = %4
  %19 = getelementptr inbounds nuw %"class.zmq::thread_t", ptr %11, i32 0, i32 2
  %20 = getelementptr inbounds [16 x i8], ptr %19, i64 0, i64 0
  %21 = load ptr, ptr %8, align 8, !tbaa !25
  %22 = call ptr @strncpy(ptr noundef %20, ptr noundef %21, i64 noundef 15) #15
  br label %23

23:                                               ; preds = %18, %4
  call void @llvm.lifetime.start.p0(i64 4, ptr %9) #15
  %24 = getelementptr inbounds nuw %"class.zmq::thread_t", ptr %11, i32 0, i32 4
  %25 = call i32 @pthread_create(ptr noundef %24, ptr noundef null, ptr noundef @_ZL14thread_routinePv, ptr noundef %11) #15
  store i32 %25, ptr %9, align 4, !tbaa !29
  br label %26

26:                                               ; preds = %23
  %27 = load i32, ptr %9, align 4, !tbaa !29
  %28 = sext i32 %27 to i64
  %29 = call i64 @llvm.expect.i64(i64 %28, i64 0)
  %30 = icmp ne i64 %29, 0
  br i1 %30, label %31, label %40

31:                                               ; preds = %26
  call void @llvm.lifetime.start.p0(i64 8, ptr %10) #15
  %32 = load i32, ptr %9, align 4, !tbaa !29
  %33 = call ptr @strerror(i32 noundef %32) #15
  store ptr %33, ptr %10, align 8, !tbaa !25
  %34 = load ptr, ptr @stderr, align 8, !tbaa !30
  %35 = load ptr, ptr %10, align 8, !tbaa !25
  %36 = call i32 (ptr, ptr, ...) @fprintf(ptr noundef %34, ptr noundef @.str, ptr noundef %35, ptr noundef @.str.1, i32 noundef 241) #15
  %37 = load ptr, ptr @stderr, align 8, !tbaa !30
  %38 = call i32 @fflush(ptr noundef %37)
  %39 = load ptr, ptr %10, align 8, !tbaa !25
  call void @_ZN3zmq9zmq_abortEPKc(ptr noundef %39)
  call void @llvm.lifetime.end.p0(i64 8, ptr %10) #15
  br label %40

40:                                               ; preds = %31, %26
  br label %41

41:                                               ; preds = %40
  br label %42

42:                                               ; preds = %41
  %43 = getelementptr inbounds nuw %"class.zmq::thread_t", ptr %11, i32 0, i32 3
  store i8 1, ptr %43, align 8, !tbaa !8
  call void @llvm.lifetime.end.p0(i64 4, ptr %9) #15
  ret void
}