; Function Attrs: mustprogress uwtable
define void @_ZN3zmq8thread_t5startEPFvPvES1_PKc(ptr noundef nonnull align 8 dereferenceable(104) initializes((0, 16)) %0, ptr noundef %1, ptr noundef %2, ptr noundef readonly %3) local_unnamed_addr #1 align 2 {
  store ptr %1, ptr %0, align 8, !tbaa !22
  %5 = getelementptr inbounds nuw i8, ptr %0, i64 8
  store ptr %2, ptr %5, align 8, !tbaa !23
  %.not = icmp eq ptr %3, null
  br i1 %.not, label %9, label %6

6:                                                ; preds = %4
  %7 = getelementptr inbounds nuw i8, ptr %0, i64 16
  %8 = tail call ptr @strncpy(ptr noundef nonnull dereferenceable(1) %7, ptr noundef nonnull dereferenceable(1) %3, i64 noundef 15) #16
  br label %9

9:                                                ; preds = %6, %4
  %10 = getelementptr inbounds nuw i8, ptr %0, i64 40
  %11 = tail call i32 @pthread_create(ptr noundef nonnull %10, ptr noundef null, ptr noundef nonnull @_ZL14thread_routinePv, ptr noundef nonnull %0) #16
  %.not8 = icmp eq i32 %11, 0
  br i1 %.not8, label %18, label %12, !prof !24

12:                                               ; preds = %9
  %13 = tail call ptr @strerror(i32 noundef %11) #16
  %14 = load ptr, ptr @stderr, align 8, !tbaa !25
  %15 = tail call i32 (ptr, ptr, ...) @fprintf(ptr noundef %14, ptr noundef nonnull @.str, ptr noundef %13, ptr noundef nonnull @.str.1, i32 noundef 241) #17
  %16 = load ptr, ptr @stderr, align 8, !tbaa !25
  %17 = tail call i32 @fflush(ptr noundef %16)
  tail call void @_ZN3zmq9zmq_abortEPKc(ptr noundef %13)
  br label %18

18:                                               ; preds = %12, %9
  %19 = getelementptr inbounds nuw i8, ptr %0, i64 32
  store i8 1, ptr %19, align 8, !tbaa !3
  ret void
}